; Function Attrs: mustprogress nounwind uwtable
define hidden noundef ptr @_ZN8AndVNode8IdentityEP8PhaseGVN(ptr noundef nonnull align 8 dereferenceable(64) %0, ptr nocapture noundef readnone %1) unnamed_addr #1 align 2 {
  %3 = getelementptr inbounds i8, ptr %0, i64 8
  %4 = load ptr, ptr %3, align 8
  %5 = getelementptr inbounds i8, ptr %4, i64 16
  %6 = load ptr, ptr %5, align 8
  %7 = tail call noundef zeroext i1 @_ZN10VectorNode18is_all_ones_vectorEP4Node(ptr noundef %6)
  %8 = load ptr, ptr %3, align 8
  %9 = getelementptr inbounds i8, ptr %8, i64 8
  %10 = load ptr, ptr %9, align 8
  br i1 %7, label %44, label %11

11:                                               ; preds = %2
  %12 = tail call noundef zeroext i1 @_ZN10VectorNode19is_all_zeros_vectorEP4Node(ptr noundef %10)
  br i1 %12, label %13, label %17

13:                                               ; preds = %11
  %14 = load ptr, ptr %3, align 8
  %15 = getelementptr inbounds i8, ptr %14, i64 8
  %16 = load ptr, ptr %15, align 8
  br label %44

17:                                               ; preds = %11
  %18 = getelementptr inbounds i8, ptr %0, i64 48
  %19 = load i32, ptr %18, align 8
  %20 = and i32 %19, 16384
  %.not = icmp eq i32 %20, 0
  br i1 %.not, label %21, label %35

21:                                               ; preds = %17
  %22 = load ptr, ptr %3, align 8
  %23 = getelementptr inbounds i8, ptr %22, i64 8
  %24 = load ptr, ptr %23, align 8
  %25 = tail call noundef zeroext i1 @_ZN10VectorNode18is_all_ones_vectorEP4Node(ptr noundef %24)
  %26 = load ptr, ptr %3, align 8
  %27 = getelementptr inbounds i8, ptr %26, i64 16
  %28 = load ptr, ptr %27, align 8
  br i1 %25, label %44, label %29

29:                                               ; preds = %21
  %30 = tail call noundef zeroext i1 @_ZN10VectorNode19is_all_zeros_vectorEP4Node(ptr noundef %28)
  br i1 %30, label %31, label %35

31:                                               ; preds = %29
  %32 = load ptr, ptr %3, align 8
  %33 = getelementptr inbounds i8, ptr %32, i64 16
  %34 = load ptr, ptr %33, align 8
  br label %44

35:                                               ; preds = %29, %17
  %36 = load ptr, ptr %3, align 8
  %37 = getelementptr inbounds i8, ptr %36, i64 8
  %38 = load ptr, ptr %37, align 8
  %39 = getelementptr inbounds i8, ptr %36, i64 16
  %40 = load ptr, ptr %39, align 8
  %41 = icmp eq ptr %38, %40
  br i1 %41, label %44, label %42

42:                                               ; preds = %35
  %43 = tail call fastcc noundef ptr @_ZL26redundant_logical_identityP4Node(ptr noundef nonnull %0)
  br label %44

44:                                               ; preds = %21, %2, %35, %42, %31, %13
  %.0 = phi ptr [ %16, %13 ], [ %43, %42 ], [ %34, %31 ], [ %38, %35 ], [ %10, %2 ], [ %28, %21 ]
  ret ptr %.0
}